target datalayout = "e-m:e-p270:32:32-p271:32:32-p272:64:64-i64:64-i128:128-f80:128-n8:16:32:64-S128"
target triple = "x86_64-pc-linux-gnu"

%struct.branch = type { %struct.hashmap_entry, ptr, ptr, ptr, ptr, ptr, ptr, i32, i32, ptr }
%struct.hashmap_entry = type { ptr, i32 }

@opt_rebase = internal global i32 -1, align 4
@.str.4 = private unnamed_addr constant [5 x i8] c"HEAD\00", align 1
@.str.128 = private unnamed_addr constant [1 x i8] zeroinitializer, align 1
@git_gettext_enabled = external global i32, align 4
@.str.144 = private unnamed_addr constant [15 x i8] c"builtin/pull.c\00", align 1
@stderr = external global ptr, align 8
@.str.155 = private unnamed_addr constant [81 x i8] c"There is no candidate for rebasing against among the refs that you just fetched.\00", align 1
@.str.156 = private unnamed_addr constant [74 x i8] c"There are no candidates for merging among the refs that you just fetched.\00", align 1
@.str.157 = private unnamed_addr constant [98 x i8] c"Generally this means that you provided a wildcard refspec which had no\0Amatches on the remote end.\00", align 1
@.str.158 = private unnamed_addr constant [192 x i8] c"You asked to pull from the remote '%s', but did not specify\0Aa branch. Because this is not the default configured remote\0Afor your current branch, you must specify a branch on the command line.\00", align 1
@.str.159 = private unnamed_addr constant [35 x i8] c"You are not currently on a branch.\00", align 1
@.str.160 = private unnamed_addr constant [56 x i8] c"Please specify which branch you want to rebase against.\00", align 1
@.str.161 = private unnamed_addr constant [52 x i8] c"Please specify which branch you want to merge with.\00", align 1
@.str.162 = private unnamed_addr constant [29 x i8] c"See git-pull(1) for details.\00", align 1
@.str.163 = private unnamed_addr constant [2 x i8] c"\0A\00", align 1
@.str.164 = private unnamed_addr constant [19 x i8] c"    git pull %s %s\00", align 1
@.str.165 = private unnamed_addr constant [9 x i8] c"<remote>\00", align 1
@.str.166 = private unnamed_addr constant [9 x i8] c"<branch>\00", align 1
@.str.167 = private unnamed_addr constant [57 x i8] c"There is no tracking information for the current branch.\00", align 1
@.str.168 = private unnamed_addr constant [76 x i8] c"If you wish to set tracking information for this branch you can do so with:\00", align 1
@.str.169 = private unnamed_addr constant [43 x i8] c"    git branch --set-upstream-to=%s/%s %s\0A\00", align 1
@.str.170 = private unnamed_addr constant [102 x i8] c"Your configuration specifies to merge with the ref '%s'\0Afrom the remote, but no such ref was fetched.\00", align 1

; Function Attrs: inlinehint nounwind uwtable
define internal ptr @_(ptr noundef %0) #4 {
  %2 = alloca ptr, align 8
  %3 = alloca ptr, align 8
  store ptr %0, ptr %3, align 8, !tbaa !11
  %4 = load ptr, ptr %3, align 8, !tbaa !11
  %5 = load i8, ptr %4, align 1, !tbaa !63
  %6 = icmp ne i8 %5, 0
  br i1 %6, label %8, label %7

7:                                                ; preds = %1
  store ptr @.str.128, ptr %2, align 8
  br label %16

8:                                                ; preds = %1
  %9 = load i32, ptr @git_gettext_enabled, align 4, !tbaa !4
  %10 = icmp ne i32 %9, 0
  br i1 %10, label %13, label %11

11:                                               ; preds = %8
  %12 = load ptr, ptr %3, align 8, !tbaa !11
  store ptr %12, ptr %2, align 8
  br label %16

13:                                               ; preds = %8
  %14 = load ptr, ptr %3, align 8, !tbaa !11
  %15 = call ptr @dcgettext(ptr noundef null, ptr noundef %14, i32 noundef 5) #11
  store ptr %15, ptr %2, align 8
  br label %16

16:                                               ; preds = %13, %11, %7
  %17 = load ptr, ptr %2, align 8
  ret ptr %17
}

; Function Attrs: noreturn nounwind uwtable
define internal void @die_no_merge_candidates(ptr noundef %0, ptr noundef %1) #8 {
  %3 = alloca ptr, align 8
  %4 = alloca ptr, align 8
  %5 = alloca ptr, align 8
  %6 = alloca ptr, align 8
  %7 = alloca ptr, align 8
  store ptr %0, ptr %3, align 8, !tbaa !11
  store ptr %1, ptr %4, align 8, !tbaa !8
  call void @llvm.lifetime.start.p0(i64 8, ptr %5) #11
  %8 = call ptr @branch_get(ptr noundef @.str.4)
  store ptr %8, ptr %5, align 8, !tbaa !52
  call void @llvm.lifetime.start.p0(i64 8, ptr %6) #11
  %9 = load ptr, ptr %5, align 8, !tbaa !52
  %10 = icmp ne ptr %9, null
  br i1 %10, label %11, label %15

11:                                               ; preds = %2
  %12 = load ptr, ptr %5, align 8, !tbaa !52
  %13 = getelementptr inbounds nuw %struct.branch, ptr %12, i32 0, i32 3
  %14 = load ptr, ptr %13, align 8, !tbaa !71
  br label %16

15:                                               ; preds = %2
  br label %16

16:                                               ; preds = %15, %11
  %17 = phi ptr [ %14, %11 ], [ null, %15 ]
  store ptr %17, ptr %6, align 8, !tbaa !11
  %18 = load ptr, ptr %4, align 8, !tbaa !8
  %19 = load ptr, ptr %18, align 8, !tbaa !11
  %20 = icmp ne ptr %19, null
  br i1 %20, label %21, label %36

21:                                               ; preds = %16
  %22 = load i32, ptr @opt_rebase, align 4, !tbaa !4
  %23 = icmp ne i32 %22, 0
  br i1 %23, label %24, label %28

24:                                               ; preds = %21
  %25 = load ptr, ptr @stderr, align 8, !tbaa !68
  %26 = call ptr @_(ptr noundef @.str.155)
  %27 = call i32 (ptr, ptr, ...) @fprintf_ln(ptr noundef %25, ptr noundef %26)
  br label %32

28:                                               ; preds = %21
  %29 = load ptr, ptr @stderr, align 8, !tbaa !68
  %30 = call ptr @_(ptr noundef @.str.156)
  %31 = call i32 (ptr, ptr, ...) @fprintf_ln(ptr noundef %29, ptr noundef %30)
  br label %32

32:                                               ; preds = %28, %24
  %33 = load ptr, ptr @stderr, align 8, !tbaa !68
  %34 = call ptr @_(ptr noundef @.str.157)
  %35 = call i32 (ptr, ptr, ...) @fprintf_ln(ptr noundef %33, ptr noundef %34)
  br label %146

36:                                               ; preds = %16
  %37 = load ptr, ptr %3, align 8, !tbaa !11
  %38 = icmp ne ptr %37, null
  br i1 %38, label %39, label %55

39:                                               ; preds = %36
  %40 = load ptr, ptr %5, align 8, !tbaa !52
  %41 = icmp ne ptr %40, null
  br i1 %41, label %42, label %55

42:                                               ; preds = %39
  %43 = load ptr, ptr %6, align 8, !tbaa !11
  %44 = icmp ne ptr %43, null
  br i1 %44, label %45, label %50

45:                                               ; preds = %42
  %46 = load ptr, ptr %3, align 8, !tbaa !11
  %47 = load ptr, ptr %6, align 8, !tbaa !11
  %48 = call i32 @strcmp(ptr noundef %46, ptr noundef %47) #12
  %49 = icmp ne i32 %48, 0
  br i1 %49, label %50, label %55

50:                                               ; preds = %45, %42
  %51 = load ptr, ptr @stderr, align 8, !tbaa !68
  %52 = call ptr @_(ptr noundef @.str.158)
  %53 = load ptr, ptr %3, align 8, !tbaa !11
  %54 = call i32 (ptr, ptr, ...) @fprintf_ln(ptr noundef %51, ptr noundef %52, ptr noundef %53)
  br label %145

55:                                               ; preds = %45, %39, %36
  %56 = load ptr, ptr %5, align 8, !tbaa !52
  %57 = icmp ne ptr %56, null
  br i1 %57, label %84, label %58

58:                                               ; preds = %55
  %59 = load ptr, ptr @stderr, align 8, !tbaa !68
  %60 = call ptr @_(ptr noundef @.str.159)
  %61 = call i32 (ptr, ptr, ...) @fprintf_ln(ptr noundef %59, ptr noundef %60)
  %62 = load i32, ptr @opt_rebase, align 4, !tbaa !4
  %63 = icmp ne i32 %62, 0
  br i1 %63, label %64, label %68

64:                                               ; preds = %58
  %65 = load ptr, ptr @stderr, align 8, !tbaa !68
  %66 = call ptr @_(ptr noundef @.str.160)
  %67 = call i32 (ptr, ptr, ...) @fprintf_ln(ptr noundef %65, ptr noundef %66)
  br label %72

68:                                               ; preds = %58
  %69 = load ptr, ptr @stderr, align 8, !tbaa !68
  %70 = call ptr @_(ptr noundef @.str.161)
  %71 = call i32 (ptr, ptr, ...) @fprintf_ln(ptr noundef %69, ptr noundef %70)
  br label %72

72:                                               ; preds = %68, %64
  %73 = load ptr, ptr @stderr, align 8, !tbaa !68
  %74 = call ptr @_(ptr noundef @.str.162)
  %75 = call i32 (ptr, ptr, ...) @fprintf_ln(ptr noundef %73, ptr noundef %74)
  %76 = load ptr, ptr @stderr, align 8, !tbaa !68
  %77 = call i32 (ptr, ptr, ...) @fprintf(ptr noundef %76, ptr noundef @.str.163) #11
  %78 = load ptr, ptr @stderr, align 8, !tbaa !68
  %79 = call ptr @_(ptr noundef @.str.165)
  %80 = call ptr @_(ptr noundef @.str.166)
  %81 = call i32 (ptr, ptr, ...) @fprintf_ln(ptr noundef %78, ptr noundef @.str.164, ptr noundef %79, ptr noundef %80)
  %82 = load ptr, ptr @stderr, align 8, !tbaa !68
  %83 = call i32 (ptr, ptr, ...) @fprintf(ptr noundef %82, ptr noundef @.str.163) #11
  br label %144

84:                                               ; preds = %55
  %85 = load ptr, ptr %5, align 8, !tbaa !52
  %86 = getelementptr inbounds nuw %struct.branch, ptr %85, i32 0, i32 7
  %87 = load i32, ptr %86, align 8, !tbaa !72
  %88 = icmp ne i32 %87, 0
  br i1 %88, label %135, label %89

89:                                               ; preds = %84
  call void @llvm.lifetime.start.p0(i64 8, ptr %7) #11
  store ptr null, ptr %7, align 8, !tbaa !11
  %90 = call i32 @for_each_remote(ptr noundef @get_only_remote, ptr noundef %7)
  %91 = icmp ne i32 %90, 0
  br i1 %91, label %95, label %92

92:                                               ; preds = %89
  %93 = load ptr, ptr %7, align 8, !tbaa !11
  %94 = icmp ne ptr %93, null
  br i1 %94, label %97, label %95

95:                                               ; preds = %92, %89
  %96 = call ptr @_(ptr noundef @.str.165)
  store ptr %96, ptr %7, align 8, !tbaa !11
  br label %97

97:                                               ; preds = %95, %92
  %98 = load ptr, ptr @stderr, align 8, !tbaa !68
  %99 = call ptr @_(ptr noundef @.str.167)
  %100 = call i32 (ptr, ptr, ...) @fprintf_ln(ptr noundef %98, ptr noundef %99)
  %101 = load i32, ptr @opt_rebase, align 4, !tbaa !4
  %102 = icmp ne i32 %101, 0
  br i1 %102, label %103, label %107

103:                                              ; preds = %97
  %104 = load ptr, ptr @stderr, align 8, !tbaa !68
  %105 = call ptr @_(ptr noundef @.str.160)
  %106 = call i32 (ptr, ptr, ...) @fprintf_ln(ptr noundef %104, ptr noundef %105)
  br label %111

107:                                              ; preds = %97
  %108 = load ptr, ptr @stderr, align 8, !tbaa !68
  %109 = call ptr @_(ptr noundef @.str.161)
  %110 = call i32 (ptr, ptr, ...) @fprintf_ln(ptr noundef %108, ptr noundef %109)
  br label %111

111:                                              ; preds = %107, %103
  %112 = load ptr, ptr @stderr, align 8, !tbaa !68
  %113 = call ptr @_(ptr noundef @.str.162)
  %114 = call i32 (ptr, ptr, ...) @fprintf_ln(ptr noundef %112, ptr noundef %113)
  %115 = load ptr, ptr @stderr, align 8, !tbaa !68
  %116 = call i32 (ptr, ptr, ...) @fprintf(ptr noundef %115, ptr noundef @.str.163) #11
  %117 = load ptr, ptr @stderr, align 8, !tbaa !68
  %118 = call ptr @_(ptr noundef @.str.165)
  %119 = call ptr @_(ptr noundef @.str.166)
  %120 = call i32 (ptr, ptr, ...) @fprintf_ln(ptr noundef %117, ptr noundef @.str.164, ptr noundef %118, ptr noundef %119)
  %121 = load ptr, ptr @stderr, align 8, !tbaa !68
  %122 = call i32 (ptr, ptr, ...) @fprintf(ptr noundef %121, ptr noundef @.str.163) #11
  %123 = load ptr, ptr @stderr, align 8, !tbaa !68
  %124 = call ptr @_(ptr noundef @.str.168)
  %125 = call i32 (ptr, ptr, ...) @fprintf_ln(ptr noundef %123, ptr noundef %124)
  %126 = load ptr, ptr @stderr, align 8, !tbaa !68
  %127 = call i32 (ptr, ptr, ...) @fprintf(ptr noundef %126, ptr noundef @.str.163) #11
  %128 = load ptr, ptr @stderr, align 8, !tbaa !68
  %129 = load ptr, ptr %7, align 8, !tbaa !11
  %130 = call ptr @_(ptr noundef @.str.166)
  %131 = load ptr, ptr %5, align 8, !tbaa !52
  %132 = getelementptr inbounds nuw %struct.branch, ptr %131, i32 0, i32 1
  %133 = load ptr, ptr %132, align 8, !tbaa !54
  %134 = call i32 (ptr, ptr, ...) @fprintf_ln(ptr noundef %128, ptr noundef @.str.169, ptr noundef %129, ptr noundef %130, ptr noundef %133)
  call void @llvm.lifetime.end.p0(i64 8, ptr %7) #11
  br label %143

135:                                              ; preds = %84
  %136 = load ptr, ptr @stderr, align 8, !tbaa !68
  %137 = call ptr @_(ptr noundef @.str.170)
  %138 = load ptr, ptr %5, align 8, !tbaa !52
  %139 = getelementptr inbounds nuw %struct.branch, ptr %138, i32 0, i32 5
  %140 = load ptr, ptr %139, align 8, !tbaa !73
  %141 = load ptr, ptr %140, align 8, !tbaa !11
  %142 = call i32 (ptr, ptr, ...) @fprintf_ln(ptr noundef %136, ptr noundef %137, ptr noundef %141)
  br label %143

143:                                              ; preds = %135, %111
  br label %144

144:                                              ; preds = %143, %72
  br label %145

145:                                              ; preds = %144, %50
  br label %146

146:                                              ; preds = %145, %32
  %147 = call i32 @common_exit(ptr noundef @.str.144, i32 noundef 491, i32 noundef 1)
  call void @exit(i32 noundef %147) #14
  unreachable
}