; Function Attrs: noreturn nounwind uwtable
define internal fastcc void @die_no_merge_candidates(ptr noundef %0, ptr noundef readonly captures(none) %1) unnamed_addr #9 {
  %3 = alloca ptr, align 8
  %4 = tail call ptr @branch_get(ptr noundef nonnull @.str.4) #17
  %5 = icmp ne ptr %4, null
  br i1 %5, label %6, label %9

6:                                                ; preds = %2
  %7 = getelementptr inbounds nuw i8, ptr %4, i64 32
  %8 = load ptr, ptr %7, align 8, !tbaa !77
  br label %9

9:                                                ; preds = %2, %6
  %10 = phi ptr [ %8, %6 ], [ null, %2 ]
  %11 = load ptr, ptr %1, align 8, !tbaa !14
  %.not = icmp eq ptr %11, null
  br i1 %.not, label %23, label %12

12:                                               ; preds = %9
  %13 = load i32, ptr @opt_rebase, align 4, !tbaa !39
  %.not27 = icmp eq i32 %13, 0
  %14 = load ptr, ptr @stderr, align 8, !tbaa !78
  %15 = load i32, ptr @git_gettext_enabled, align 4, !tbaa !39
  %.not4.i28 = icmp eq i32 %15, 0
  %.str.156..str.155 = select i1 %.not27, ptr @.str.156, ptr @.str.155
  br i1 %.not4.i28, label %_.exit, label %_.exit.sink.split

_.exit.sink.split:                                ; preds = %12
  %16 = tail call ptr @dcgettext(ptr noundef null, ptr noundef nonnull %.str.156..str.155, i32 noundef 5) #17
  br label %_.exit

_.exit:                                           ; preds = %12, %_.exit.sink.split
  %.0.i29.sink = phi ptr [ %16, %_.exit.sink.split ], [ %.str.156..str.155, %12 ]
  %17 = tail call i32 (ptr, ptr, ...) @fprintf_ln(ptr noundef %14, ptr noundef %.0.i29.sink) #17
  %18 = load ptr, ptr @stderr, align 8, !tbaa !78
  %19 = load i32, ptr @git_gettext_enabled, align 4, !tbaa !39
  %.not4.i31 = icmp eq i32 %19, 0
  br i1 %.not4.i31, label %_.exit33, label %20

20:                                               ; preds = %_.exit
  %21 = tail call ptr @dcgettext(ptr noundef null, ptr noundef nonnull @.str.157, i32 noundef 5) #17
  br label %_.exit33

_.exit33:                                         ; preds = %_.exit, %20
  %.0.i32 = phi ptr [ %21, %20 ], [ @.str.157, %_.exit ]
  %22 = tail call i32 (ptr, ptr, ...) @fprintf_ln(ptr noundef %18, ptr noundef %.0.i32) #17
  br label %116

23:                                               ; preds = %9
  %24 = icmp ne ptr %0, null
  %or.cond = and i1 %24, %5
  br i1 %or.cond, label %25, label %34

25:                                               ; preds = %23
  %.not18 = icmp eq ptr %10, null
  br i1 %.not18, label %28, label %26

26:                                               ; preds = %25
  %27 = tail call i32 @strcmp(ptr noundef nonnull dereferenceable(1) %0, ptr noundef nonnull dereferenceable(1) %10) #18
  %.not19 = icmp eq i32 %27, 0
  br i1 %.not19, label %.thread, label %28

28:                                               ; preds = %26, %25
  %29 = load ptr, ptr @stderr, align 8, !tbaa !78
  %30 = load i32, ptr @git_gettext_enabled, align 4, !tbaa !39
  %.not4.i34 = icmp eq i32 %30, 0
  br i1 %.not4.i34, label %_.exit36, label %31

31:                                               ; preds = %28
  %32 = tail call ptr @dcgettext(ptr noundef null, ptr noundef nonnull @.str.158, i32 noundef 5) #17
  br label %_.exit36

_.exit36:                                         ; preds = %28, %31
  %.0.i35 = phi ptr [ %32, %31 ], [ @.str.158, %28 ]
  %33 = tail call i32 (ptr, ptr, ...) @fprintf_ln(ptr noundef %29, ptr noundef %.0.i35, ptr noundef nonnull %0) #17
  br label %116

34:                                               ; preds = %23
  br i1 %5, label %.thread, label %35

35:                                               ; preds = %34
  %36 = load ptr, ptr @stderr, align 8, !tbaa !78
  %37 = load i32, ptr @git_gettext_enabled, align 4, !tbaa !39
  %.not4.i37 = icmp eq i32 %37, 0
  br i1 %.not4.i37, label %_.exit39, label %38

38:                                               ; preds = %35
  %39 = tail call ptr @dcgettext(ptr noundef null, ptr noundef nonnull @.str.159, i32 noundef 5) #17
  br label %_.exit39

_.exit39:                                         ; preds = %35, %38
  %.0.i38 = phi ptr [ %39, %38 ], [ @.str.159, %35 ]
  %40 = tail call i32 (ptr, ptr, ...) @fprintf_ln(ptr noundef %36, ptr noundef %.0.i38) #17
  %41 = load i32, ptr @opt_rebase, align 4, !tbaa !39
  %.not20 = icmp eq i32 %41, 0
  %42 = load ptr, ptr @stderr, align 8, !tbaa !78
  %43 = load i32, ptr @git_gettext_enabled, align 4, !tbaa !39
  %.not4.i43 = icmp eq i32 %43, 0
  %.str.161..str.160 = select i1 %.not20, ptr @.str.161, ptr @.str.160
  br i1 %.not4.i43, label %_.exit42, label %_.exit42.sink.split

_.exit42.sink.split:                              ; preds = %_.exit39
  %44 = tail call ptr @dcgettext(ptr noundef null, ptr noundef nonnull %.str.161..str.160, i32 noundef 5) #17
  br label %_.exit42

_.exit42:                                         ; preds = %_.exit39, %_.exit42.sink.split
  %.0.i44.sink = phi ptr [ %44, %_.exit42.sink.split ], [ %.str.161..str.160, %_.exit39 ]
  %45 = tail call i32 (ptr, ptr, ...) @fprintf_ln(ptr noundef %42, ptr noundef %.0.i44.sink) #17
  %46 = load ptr, ptr @stderr, align 8, !tbaa !78
  %47 = load i32, ptr @git_gettext_enabled, align 4, !tbaa !39
  %.not4.i46 = icmp eq i32 %47, 0
  br i1 %.not4.i46, label %_.exit48, label %48

48:                                               ; preds = %_.exit42
  %49 = tail call ptr @dcgettext(ptr noundef null, ptr noundef nonnull @.str.162, i32 noundef 5) #17
  br label %_.exit48

_.exit48:                                         ; preds = %_.exit42, %48
  %.0.i47 = phi ptr [ %49, %48 ], [ @.str.162, %_.exit42 ]
  %50 = tail call i32 (ptr, ptr, ...) @fprintf_ln(ptr noundef %46, ptr noundef %.0.i47) #17
  %51 = load ptr, ptr @stderr, align 8, !tbaa !78
  %fputc = tail call i32 @fputc(i32 10, ptr %51)
  %52 = load ptr, ptr @stderr, align 8, !tbaa !78
  %53 = load i32, ptr @git_gettext_enabled, align 4, !tbaa !39
  %.not4.i49 = icmp eq i32 %53, 0
  br i1 %.not4.i49, label %_.exit54, label %_.exit51

_.exit51:                                         ; preds = %_.exit48
  %54 = tail call ptr @dcgettext(ptr noundef null, ptr noundef nonnull @.str.165, i32 noundef 5) #17
  %.pr = load i32, ptr @git_gettext_enabled, align 4, !tbaa !39
  %.not4.i52 = icmp eq i32 %.pr, 0
  br i1 %.not4.i52, label %_.exit54, label %55

55:                                               ; preds = %_.exit51
  %56 = tail call ptr @dcgettext(ptr noundef null, ptr noundef nonnull @.str.166, i32 noundef 5) #17
  br label %_.exit54

_.exit54:                                         ; preds = %_.exit48, %_.exit51, %55
  %.0.i5087 = phi ptr [ %54, %55 ], [ %54, %_.exit51 ], [ @.str.165, %_.exit48 ]
  %.0.i53 = phi ptr [ %56, %55 ], [ @.str.166, %_.exit51 ], [ @.str.166, %_.exit48 ]
  %57 = tail call i32 (ptr, ptr, ...) @fprintf_ln(ptr noundef %52, ptr noundef nonnull @.str.164, ptr noundef %.0.i5087, ptr noundef %.0.i53) #17
  %58 = load ptr, ptr @stderr, align 8, !tbaa !78
  %fputc21 = tail call i32 @fputc(i32 10, ptr %58)
  br label %116

.thread:                                          ; preds = %26, %34
  %59 = getelementptr inbounds nuw i8, ptr %4, i64 64
  %60 = load i32, ptr %59, align 8, !tbaa !80
  %.not22 = icmp eq i32 %60, 0
  br i1 %.not22, label %61, label %107

61:                                               ; preds = %.thread
  call void @llvm.lifetime.start.p0(i64 8, ptr nonnull %3) #17
  store ptr null, ptr %3, align 8, !tbaa !14
  %62 = call i32 @for_each_remote(ptr noundef nonnull @get_only_remote, ptr noundef nonnull %3) #17
  %63 = icmp eq i32 %62, 0
  %64 = load ptr, ptr %3, align 8
  %65 = icmp ne ptr %64, null
  %or.cond3 = select i1 %63, i1 %65, i1 false
  %.pre92 = load i32, ptr @git_gettext_enabled, align 4, !tbaa !39
  br i1 %or.cond3, label %69, label %66

66:                                               ; preds = %61
  %.not4.i55 = icmp eq i32 %.pre92, 0
  br i1 %.not4.i55, label %_.exit57, label %67

67:                                               ; preds = %66
  %68 = call ptr @dcgettext(ptr noundef null, ptr noundef nonnull @.str.165, i32 noundef 5) #17
  %.pre.pre = load i32, ptr @git_gettext_enabled, align 4, !tbaa !39
  br label %_.exit57

_.exit57:                                         ; preds = %66, %67
  %.pre = phi i32 [ %.pre.pre, %67 ], [ 0, %66 ]
  %.0.i56 = phi ptr [ %68, %67 ], [ @.str.165, %66 ]
  store ptr %.0.i56, ptr %3, align 8, !tbaa !14
  br label %69

69:                                               ; preds = %61, %_.exit57
  %70 = phi i32 [ %.pre92, %61 ], [ %.pre, %_.exit57 ]
  %71 = load ptr, ptr @stderr, align 8, !tbaa !78
  %.not4.i58 = icmp eq i32 %70, 0
  br i1 %.not4.i58, label %_.exit60, label %72

72:                                               ; preds = %69
  %73 = call ptr @dcgettext(ptr noundef null, ptr noundef nonnull @.str.167, i32 noundef 5) #17
  br label %_.exit60

_.exit60:                                         ; preds = %69, %72
  %.0.i59 = phi ptr [ %73, %72 ], [ @.str.167, %69 ]
  %74 = call i32 (ptr, ptr, ...) @fprintf_ln(ptr noundef %71, ptr noundef %.0.i59) #17
  %75 = load i32, ptr @opt_rebase, align 4, !tbaa !39
  %.not23 = icmp eq i32 %75, 0
  %76 = load ptr, ptr @stderr, align 8, !tbaa !78
  %77 = load i32, ptr @git_gettext_enabled, align 4, !tbaa !39
  %.not4.i64 = icmp eq i32 %77, 0
  %.str.161..str.16095 = select i1 %.not23, ptr @.str.161, ptr @.str.160
  br i1 %.not4.i64, label %_.exit63, label %_.exit63.sink.split

_.exit63.sink.split:                              ; preds = %_.exit60
  %78 = call ptr @dcgettext(ptr noundef null, ptr noundef nonnull %.str.161..str.16095, i32 noundef 5) #17
  br label %_.exit63

_.exit63:                                         ; preds = %_.exit60, %_.exit63.sink.split
  %.0.i65.sink = phi ptr [ %78, %_.exit63.sink.split ], [ %.str.161..str.16095, %_.exit60 ]
  %79 = call i32 (ptr, ptr, ...) @fprintf_ln(ptr noundef %76, ptr noundef %.0.i65.sink) #17
  %80 = load ptr, ptr @stderr, align 8, !tbaa !78
  %81 = load i32, ptr @git_gettext_enabled, align 4, !tbaa !39
  %.not4.i67 = icmp eq i32 %81, 0
  br i1 %.not4.i67, label %_.exit69, label %82

82:                                               ; preds = %_.exit63
  %83 = call ptr @dcgettext(ptr noundef null, ptr noundef nonnull @.str.162, i32 noundef 5) #17
  br label %_.exit69

_.exit69:                                         ; preds = %_.exit63, %82
  %.0.i68 = phi ptr [ %83, %82 ], [ @.str.162, %_.exit63 ]
  %84 = call i32 (ptr, ptr, ...) @fprintf_ln(ptr noundef %80, ptr noundef %.0.i68) #17
  %85 = load ptr, ptr @stderr, align 8, !tbaa !78
  %fputc24 = call i32 @fputc(i32 10, ptr %85)
  %86 = load ptr, ptr @stderr, align 8, !tbaa !78
  %87 = load i32, ptr @git_gettext_enabled, align 4, !tbaa !39
  %.not4.i70 = icmp eq i32 %87, 0
  br i1 %.not4.i70, label %_.exit75, label %_.exit72

_.exit72:                                         ; preds = %_.exit69
  %88 = call ptr @dcgettext(ptr noundef null, ptr noundef nonnull @.str.165, i32 noundef 5) #17
  %.pr88 = load i32, ptr @git_gettext_enabled, align 4, !tbaa !39
  %.not4.i73 = icmp eq i32 %.pr88, 0
  br i1 %.not4.i73, label %_.exit75, label %89

89:                                               ; preds = %_.exit72
  %90 = call ptr @dcgettext(ptr noundef null, ptr noundef nonnull @.str.166, i32 noundef 5) #17
  br label %_.exit75

_.exit75:                                         ; preds = %_.exit69, %_.exit72, %89
  %.0.i7191 = phi ptr [ %88, %89 ], [ %88, %_.exit72 ], [ @.str.165, %_.exit69 ]
  %.0.i74 = phi ptr [ %90, %89 ], [ @.str.166, %_.exit72 ], [ @.str.166, %_.exit69 ]
  %91 = call i32 (ptr, ptr, ...) @fprintf_ln(ptr noundef %86, ptr noundef nonnull @.str.164, ptr noundef %.0.i7191, ptr noundef %.0.i74) #17
  %92 = load ptr, ptr @stderr, align 8, !tbaa !78
  %fputc25 = call i32 @fputc(i32 10, ptr %92)
  %93 = load ptr, ptr @stderr, align 8, !tbaa !78
  %94 = load i32, ptr @git_gettext_enabled, align 4, !tbaa !39
  %.not4.i76 = icmp eq i32 %94, 0
  br i1 %.not4.i76, label %_.exit78, label %95

95:                                               ; preds = %_.exit75
  %96 = call ptr @dcgettext(ptr noundef null, ptr noundef nonnull @.str.168, i32 noundef 5) #17
  br label %_.exit78

_.exit78:                                         ; preds = %_.exit75, %95
  %.0.i77 = phi ptr [ %96, %95 ], [ @.str.168, %_.exit75 ]
  %97 = call i32 (ptr, ptr, ...) @fprintf_ln(ptr noundef %93, ptr noundef %.0.i77) #17
  %98 = load ptr, ptr @stderr, align 8, !tbaa !78
  %fputc26 = call i32 @fputc(i32 10, ptr %98)
  %99 = load ptr, ptr @stderr, align 8, !tbaa !78
  %100 = load ptr, ptr %3, align 8, !tbaa !14
  %101 = load i32, ptr @git_gettext_enabled, align 4, !tbaa !39
  %.not4.i79 = icmp eq i32 %101, 0
  br i1 %.not4.i79, label %_.exit81, label %102

102:                                              ; preds = %_.exit78
  %103 = call ptr @dcgettext(ptr noundef null, ptr noundef nonnull @.str.166, i32 noundef 5) #17
  br label %_.exit81

_.exit81:                                         ; preds = %_.exit78, %102
  %.0.i80 = phi ptr [ %103, %102 ], [ @.str.166, %_.exit78 ]
  %104 = getelementptr inbounds nuw i8, ptr %4, i64 16
  %105 = load ptr, ptr %104, align 8, !tbaa !40
  %106 = call i32 (ptr, ptr, ...) @fprintf_ln(ptr noundef %99, ptr noundef nonnull @.str.169, ptr noundef %100, ptr noundef %.0.i80, ptr noundef %105) #17
  call void @llvm.lifetime.end.p0(i64 8, ptr nonnull %3) #17
  br label %116

107:                                              ; preds = %.thread
  %108 = load ptr, ptr @stderr, align 8, !tbaa !78
  %109 = load i32, ptr @git_gettext_enabled, align 4, !tbaa !39
  %.not4.i82 = icmp eq i32 %109, 0
  br i1 %.not4.i82, label %_.exit84, label %110

110:                                              ; preds = %107
  %111 = tail call ptr @dcgettext(ptr noundef null, ptr noundef nonnull @.str.170, i32 noundef 5) #17
  br label %_.exit84

_.exit84:                                         ; preds = %107, %110
  %.0.i83 = phi ptr [ %111, %110 ], [ @.str.170, %107 ]
  %112 = getelementptr inbounds nuw i8, ptr %4, i64 48
  %113 = load ptr, ptr %112, align 8, !tbaa !81
  %114 = load ptr, ptr %113, align 8, !tbaa !14
  %115 = tail call i32 (ptr, ptr, ...) @fprintf_ln(ptr noundef %108, ptr noundef %.0.i83, ptr noundef %114) #17
  br label %116

116:                                              ; preds = %_.exit36, %_.exit81, %_.exit84, %_.exit54, %_.exit33
  %117 = call i32 @common_exit(ptr noundef nonnull @.str.144, i32 noundef 491, i32 noundef 1) #17
  call void @exit(i32 noundef %117) #19
  unreachable
}